target datalayout = "e-m:e-p270:32:32-p271:32:32-p272:64:64-i64:64-i128:128-f80:128-n8:16:32:64-S128"
target triple = "x86_64-pc-linux-gnu"

%struct.pkcs7_st = type { ptr, i64, i32, i32, ptr, %union.anon, %struct.PKCS7_CTX_st }
%union.anon = type { ptr }
%struct.PKCS7_CTX_st = type { ptr, ptr }
%struct.pkcs7_digest_st = type { ptr, ptr, ptr, ptr }
%struct.X509_algor_st = type { ptr, ptr }
%struct.asn1_type_st = type { i32, %union.anon.0 }
%union.anon.0 = type { ptr }

@.str = private unnamed_addr constant [34 x i8] c"../openssl/crypto/pkcs7/pk7_lib.c\00", align 1
@__func__.PKCS7_set_digest = private unnamed_addr constant [17 x i8] c"PKCS7_set_digest\00", align 1

; Function Attrs: nounwind uwtable
define i32 @PKCS7_set_digest(ptr noundef %0, ptr noundef %1) #0 {
  %3 = alloca i32, align 4
  %4 = alloca ptr, align 8
  %5 = alloca ptr, align 8
  store ptr %0, ptr %4, align 8, !tbaa !3
  store ptr %1, ptr %5, align 8, !tbaa !84
  %6 = load ptr, ptr %4, align 8, !tbaa !3
  %7 = getelementptr inbounds nuw %struct.pkcs7_st, ptr %6, i32 0, i32 4
  %8 = load ptr, ptr %7, align 8, !tbaa !14
  %9 = call i32 @OBJ_obj2nid(ptr noundef %8)
  %10 = icmp eq i32 %9, 25
  br i1 %10, label %11, label %39

11:                                               ; preds = %2
  %12 = call ptr @ASN1_TYPE_new()
  %13 = load ptr, ptr %4, align 8, !tbaa !3
  %14 = getelementptr inbounds nuw %struct.pkcs7_st, ptr %13, i32 0, i32 5
  %15 = load ptr, ptr %14, align 8, !tbaa !19
  %16 = getelementptr inbounds nuw %struct.pkcs7_digest_st, ptr %15, i32 0, i32 1
  %17 = load ptr, ptr %16, align 8, !tbaa !123
  %18 = getelementptr inbounds nuw %struct.X509_algor_st, ptr %17, i32 0, i32 1
  store ptr %12, ptr %18, align 8, !tbaa !70
  %19 = icmp eq ptr %12, null
  br i1 %19, label %20, label %21

20:                                               ; preds = %11
  call void @ERR_new()
  call void @ERR_set_debug(ptr noundef @.str, i32 noundef 528, ptr noundef @__func__.PKCS7_set_digest)
  call void (i32, i32, ptr, ...) @ERR_set_error(i32 noundef 33, i32 noundef 524301, ptr noundef null)
  store i32 0, ptr %3, align 4
  br label %40

21:                                               ; preds = %11
  %22 = load ptr, ptr %4, align 8, !tbaa !3
  %23 = getelementptr inbounds nuw %struct.pkcs7_st, ptr %22, i32 0, i32 5
  %24 = load ptr, ptr %23, align 8, !tbaa !19
  %25 = getelementptr inbounds nuw %struct.pkcs7_digest_st, ptr %24, i32 0, i32 1
  %26 = load ptr, ptr %25, align 8, !tbaa !123
  %27 = getelementptr inbounds nuw %struct.X509_algor_st, ptr %26, i32 0, i32 1
  %28 = load ptr, ptr %27, align 8, !tbaa !70
  %29 = getelementptr inbounds nuw %struct.asn1_type_st, ptr %28, i32 0, i32 0
  store i32 5, ptr %29, align 8, !tbaa !71
  %30 = load ptr, ptr %5, align 8, !tbaa !84
  %31 = call i32 @EVP_MD_get_type(ptr noundef %30)
  %32 = call ptr @OBJ_nid2obj(i32 noundef %31)
  %33 = load ptr, ptr %4, align 8, !tbaa !3
  %34 = getelementptr inbounds nuw %struct.pkcs7_st, ptr %33, i32 0, i32 5
  %35 = load ptr, ptr %34, align 8, !tbaa !19
  %36 = getelementptr inbounds nuw %struct.pkcs7_digest_st, ptr %35, i32 0, i32 1
  %37 = load ptr, ptr %36, align 8, !tbaa !123
  %38 = getelementptr inbounds nuw %struct.X509_algor_st, ptr %37, i32 0, i32 0
  store ptr %32, ptr %38, align 8, !tbaa !65
  store i32 1, ptr %3, align 4
  br label %40

39:                                               ; preds = %2
  call void @ERR_new()
  call void @ERR_set_debug(ptr noundef @.str, i32 noundef 536, ptr noundef @__func__.PKCS7_set_digest)
  call void (i32, i32, ptr, ...) @ERR_set_error(i32 noundef 33, i32 noundef 113, ptr noundef null)
  store i32 1, ptr %3, align 4
  br label %40

40:                                               ; preds = %39, %21, %20
  %41 = load i32, ptr %3, align 4
  ret i32 %41
}