; Function Attrs: nounwind uwtable
define range(i32 0, 2) i32 @PKCS7_set_digest(ptr noundef readonly captures(none) %0, ptr noundef %1) local_unnamed_addr #0 {
  %3 = getelementptr inbounds nuw i8, ptr %0, i64 24
  %4 = load ptr, ptr %3, align 8, !tbaa !3
  %5 = tail call i32 @OBJ_obj2nid(ptr noundef %4) #7
  %6 = icmp eq i32 %5, 25
  br i1 %6, label %7, label %27

7:                                                ; preds = %2
  %8 = tail call ptr @ASN1_TYPE_new() #7
  %9 = getelementptr inbounds nuw i8, ptr %0, i64 32
  %10 = load ptr, ptr %9, align 8, !tbaa !14
  %11 = getelementptr inbounds nuw i8, ptr %10, i64 8
  %12 = load ptr, ptr %11, align 8, !tbaa !93
  %13 = getelementptr inbounds nuw i8, ptr %12, i64 8
  store ptr %8, ptr %13, align 8, !tbaa !56
  %14 = icmp eq ptr %8, null
  br i1 %14, label %15, label %16

15:                                               ; preds = %7
  tail call void @ERR_new() #7
  tail call void @ERR_set_debug(ptr noundef nonnull @.str, i32 noundef 528, ptr noundef nonnull @__func__.PKCS7_set_digest) #7
  tail call void (i32, i32, ptr, ...) @ERR_set_error(i32 noundef 33, i32 noundef 524301, ptr noundef null) #7
  br label %28

16:                                               ; preds = %7
  %17 = load ptr, ptr %9, align 8, !tbaa !14
  %18 = getelementptr inbounds nuw i8, ptr %17, i64 8
  %19 = load ptr, ptr %18, align 8, !tbaa !93
  %20 = getelementptr inbounds nuw i8, ptr %19, i64 8
  %21 = load ptr, ptr %20, align 8, !tbaa !56
  store i32 5, ptr %21, align 8, !tbaa !57
  %22 = tail call i32 @EVP_MD_get_type(ptr noundef %1) #7
  %23 = tail call ptr @OBJ_nid2obj(i32 noundef %22) #7
  %24 = load ptr, ptr %9, align 8, !tbaa !14
  %25 = getelementptr inbounds nuw i8, ptr %24, i64 8
  %26 = load ptr, ptr %25, align 8, !tbaa !93
  store ptr %23, ptr %26, align 8, !tbaa !51
  br label %28

27:                                               ; preds = %2
  tail call void @ERR_new() #7
  tail call void @ERR_set_debug(ptr noundef nonnull @.str, i32 noundef 536, ptr noundef nonnull @__func__.PKCS7_set_digest) #7
  tail call void (i32, i32, ptr, ...) @ERR_set_error(i32 noundef 33, i32 noundef 113, ptr noundef null) #7
  br label %28

28:                                               ; preds = %27, %16, %15
  %.0 = phi i32 [ 0, %15 ], [ 1, %16 ], [ 1, %27 ]
  ret i32 %.0
}